target datalayout = "e-m:e-p270:32:32-p271:32:32-p272:64:64-i64:64-i128:128-f80:128-n8:16:32:64-S128"
target triple = "x86_64-pc-linux-gnu"

%class.Register = type { i32 }
%class.XMMRegister = type { i32 }
%class.Label = type <{ i32, [4 x i32], i32, ptr, i8, [7 x i8] }>
%class.Address = type { %class.Register, %class.Register, %class.XMMRegister, i32, i32, i8, [3 x i8], %class.RelocationHolder }
%class.RelocationHolder = type { [40 x i8] }
%class.Relocation = type <{ ptr, ptr, i32, [4 x i8] }>

@_ZL4xmm0 = internal constant %class.XMMRegister zeroinitializer, align 4
@_ZL4xmm1 = internal constant %class.XMMRegister { i32 1 }, align 4
@_ZL5noreg = internal constant %class.Register { i32 -1 }, align 4
@_ZL6xnoreg = internal constant %class.XMMRegister { i32 -1 }, align 4
@_ZTV10Relocation = external unnamed_addr constant { [11 x ptr] }, align 8

; Function Attrs: mustprogress nounwind uwtable
define linkonce_odr hidden void @_ZN10RelocationC2EN9relocInfo9relocTypeE(ptr noundef nonnull align 8 dereferenceable(20) %0, i32 noundef %1) unnamed_addr #1 comdat align 2 {
  %3 = alloca ptr, align 8
  %4 = alloca i32, align 4
  store ptr %0, ptr %3, align 8
  store i32 %1, ptr %4, align 4
  %5 = load ptr, ptr %3, align 8
  store ptr getelementptr inbounds inrange(-16, 72) ({ [11 x ptr] }, ptr @_ZTV10Relocation, i32 0, i32 0, i32 2), ptr %5, align 8
  %6 = getelementptr inbounds %class.Relocation, ptr %5, i32 0, i32 1
  store ptr null, ptr %6, align 8
  %7 = getelementptr inbounds %class.Relocation, ptr %5, i32 0, i32 2
  %8 = load i32, ptr %4, align 4
  store i32 %8, ptr %7, align 8
  ret void
}

; Function Attrs: mustprogress nounwind uwtable
define linkonce_odr hidden void @_ZN10RelocationC2Ev(ptr noundef nonnull align 8 dereferenceable(20) %0) unnamed_addr #1 comdat align 2 {
  %2 = alloca ptr, align 8
  store ptr %0, ptr %2, align 8
  %3 = load ptr, ptr %2, align 8
  call void @_ZN10RelocationC2EN9relocInfo9relocTypeE(ptr noundef nonnull align 8 dereferenceable(20) %3, i32 noundef 0)
  ret void
}

; Function Attrs: mustprogress nounwind uwtable
define linkonce_odr hidden void @_ZN16RelocationHolder18emplace_relocationI10RelocationJEEEvDpRKT0_(ptr noundef nonnull align 8 dereferenceable(40) %0) #1 comdat align 2 {
  %2 = alloca ptr, align 8
  %3 = alloca ptr, align 8
  store ptr %0, ptr %2, align 8
  %4 = load ptr, ptr %2, align 8
  %5 = getelementptr inbounds %class.RelocationHolder, ptr %4, i32 0, i32 0
  %6 = getelementptr inbounds [40 x i8], ptr %5, i64 0, i64 0
  call void @_ZN10RelocationC2Ev(ptr noundef nonnull align 8 dereferenceable(20) %6)
  store ptr %6, ptr %3, align 8
  ret void
}

; Function Attrs: mustprogress nounwind uwtable
define linkonce_odr hidden void @_ZN16RelocationHolderC2I10RelocationJEEENS_9ConstructIT_EEDpRKT0_(ptr noundef nonnull align 8 dereferenceable(40) %0) unnamed_addr #1 comdat align 2 {
  %2 = alloca ptr, align 8
  store ptr %0, ptr %2, align 8
  %3 = load ptr, ptr %2, align 8
  call void @_ZN16RelocationHolder18emplace_relocationI10RelocationJEEEvDpRKT0_(ptr noundef nonnull align 8 dereferenceable(40) %3)
  ret void
}

; Function Attrs: mustprogress nounwind uwtable
define linkonce_odr hidden void @_ZN16RelocationHolderC2Ev(ptr noundef nonnull align 8 dereferenceable(40) %0) unnamed_addr #1 comdat align 2 {
  %2 = alloca ptr, align 8
  store ptr %0, ptr %2, align 8
  %3 = load ptr, ptr %2, align 8
  call void @_ZN16RelocationHolderC2I10RelocationJEEENS_9ConstructIT_EEDpRKT0_(ptr noundef nonnull align 8 dereferenceable(40) %3)
  ret void
}

; Function Attrs: mustprogress nounwind uwtable
define linkonce_odr hidden void @_ZN5Label4initEv(ptr noundef nonnull align 8 dereferenceable(33) %0) #1 comdat align 2 {
  %2 = alloca ptr, align 8
  store ptr %0, ptr %2, align 8
  %3 = load ptr, ptr %2, align 8
  %4 = getelementptr inbounds %class.Label, ptr %3, i32 0, i32 0
  store i32 -1, ptr %4, align 8
  %5 = getelementptr inbounds %class.Label, ptr %3, i32 0, i32 2
  store i32 0, ptr %5, align 4
  %6 = getelementptr inbounds %class.Label, ptr %3, i32 0, i32 3
  store ptr null, ptr %6, align 8
  %7 = getelementptr inbounds %class.Label, ptr %3, i32 0, i32 4
  store i8 0, ptr %7, align 8
  ret void
}

; Function Attrs: mustprogress nounwind uwtable
define linkonce_odr hidden void @_ZN5LabelD2Ev(ptr noundef nonnull align 8 dereferenceable(33) %0) unnamed_addr #1 comdat align 2 {
  %2 = alloca ptr, align 8
  store ptr %0, ptr %2, align 8
  ret void
}

; Function Attrs: mustprogress nounwind uwtable
define linkonce_odr hidden void @_ZN7AddressC2E8RegisterS0_NS_11ScaleFactorEi(ptr noundef nonnull align 8 dereferenceable(64) %0, i32 %1, i32 %2, i32 noundef %3, i32 noundef %4) unnamed_addr #1 comdat align 2 {
  %6 = alloca %class.Register, align 4
  %7 = alloca %class.Register, align 4
  %8 = alloca ptr, align 8
  %9 = alloca i32, align 4
  %10 = alloca i32, align 4
  %11 = getelementptr inbounds %class.Register, ptr %6, i32 0, i32 0
  store i32 %1, ptr %11, align 4
  %12 = getelementptr inbounds %class.Register, ptr %7, i32 0, i32 0
  store i32 %2, ptr %12, align 4
  store ptr %0, ptr %8, align 8
  store i32 %3, ptr %9, align 4
  store i32 %4, ptr %10, align 4
  %13 = load ptr, ptr %8, align 8
  %14 = getelementptr inbounds %class.Address, ptr %13, i32 0, i32 0
  call void @llvm.memcpy.p0.p0.i64(ptr align 8 %14, ptr align 4 %6, i64 4, i1 false)
  %15 = getelementptr inbounds %class.Address, ptr %13, i32 0, i32 1
  call void @llvm.memcpy.p0.p0.i64(ptr align 4 %15, ptr align 4 %7, i64 4, i1 false)
  %16 = getelementptr inbounds %class.Address, ptr %13, i32 0, i32 2
  call void @llvm.memcpy.p0.p0.i64(ptr align 8 %16, ptr align 4 @_ZL6xnoreg, i64 4, i1 false)
  %17 = getelementptr inbounds %class.Address, ptr %13, i32 0, i32 3
  %18 = load i32, ptr %9, align 4
  store i32 %18, ptr %17, align 4
  %19 = getelementptr inbounds %class.Address, ptr %13, i32 0, i32 4
  %20 = load i32, ptr %10, align 4
  store i32 %20, ptr %19, align 8
  %21 = getelementptr inbounds %class.Address, ptr %13, i32 0, i32 5
  store i8 0, ptr %21, align 4
  %22 = getelementptr inbounds %class.Address, ptr %13, i32 0, i32 7
  call void @_ZN16RelocationHolderC2Ev(ptr noundef nonnull align 8 dereferenceable(40) %22)
  ret void
}

; Function Attrs: mustprogress nounwind uwtable
define linkonce_odr hidden void @_ZN7AddressC2E8Registeri(ptr noundef nonnull align 8 dereferenceable(64) %0, i32 %1, i32 noundef %2) unnamed_addr #1 comdat align 2 {
  %4 = alloca %class.Register, align 4
  %5 = alloca ptr, align 8
  %6 = alloca i32, align 4
  %7 = getelementptr inbounds %class.Register, ptr %4, i32 0, i32 0
  store i32 %1, ptr %7, align 4
  store ptr %0, ptr %5, align 8
  store i32 %2, ptr %6, align 4
  %8 = load ptr, ptr %5, align 8
  %9 = getelementptr inbounds %class.Address, ptr %8, i32 0, i32 0
  call void @llvm.memcpy.p0.p0.i64(ptr align 8 %9, ptr align 4 %4, i64 4, i1 false)
  %10 = getelementptr inbounds %class.Address, ptr %8, i32 0, i32 1
  call void @llvm.memcpy.p0.p0.i64(ptr align 4 %10, ptr align 4 @_ZL5noreg, i64 4, i1 false)
  %11 = getelementptr inbounds %class.Address, ptr %8, i32 0, i32 2
  call void @llvm.memcpy.p0.p0.i64(ptr align 8 %11, ptr align 4 @_ZL6xnoreg, i64 4, i1 false)
  %12 = getelementptr inbounds %class.Address, ptr %8, i32 0, i32 3
  store i32 -1, ptr %12, align 4
  %13 = getelementptr inbounds %class.Address, ptr %8, i32 0, i32 4
  %14 = load i32, ptr %6, align 4
  store i32 %14, ptr %13, align 8
  %15 = getelementptr inbounds %class.Address, ptr %8, i32 0, i32 5
  store i8 0, ptr %15, align 4
  %16 = getelementptr inbounds %class.Address, ptr %8, i32 0, i32 7
  call void @_ZN16RelocationHolderC2Ev(ptr noundef nonnull align 8 dereferenceable(40) %16)
  ret void
}

; Function Attrs: mustprogress nounwind uwtable
define linkonce_odr hidden void @_ZN5LabelC2Ev(ptr noundef nonnull align 8 dereferenceable(33) %0) unnamed_addr #1 comdat align 2 {
  %2 = alloca ptr, align 8
  store ptr %0, ptr %2, align 8
  %3 = load ptr, ptr %2, align 8
  call void @_ZN5Label4initEv(ptr noundef nonnull align 8 dereferenceable(33) %3)
  ret void
}

; Function Attrs: mustprogress nounwind uwtable
define internal void @_ZL31broadcast_first_and_last_needle8RegisterS_S_N16StrIntrinsicNode11ArgEncodingEP14MacroAssembler(i32 %0, i32 %1, i32 %2, i32 noundef %3, ptr noundef %4) #1 {
  %6 = alloca %class.Register, align 4
  %7 = alloca %class.Register, align 4
  %8 = alloca %class.Register, align 4
  %9 = alloca i32, align 4
  %10 = alloca ptr, align 8
  %11 = alloca i8, align 1
  %12 = alloca i8, align 1
  %13 = alloca i8, align 1
  %14 = alloca %class.Label, align 8
  %15 = alloca %class.XMMRegister, align 4
  %16 = alloca %class.Address, align 8
  %17 = alloca %class.Register, align 4
  %18 = alloca %class.Register, align 4
  %19 = alloca %class.Address, align 8
  %20 = alloca %class.Register, align 4
  %21 = alloca %class.XMMRegister, align 4
  %22 = alloca %class.Register, align 4
  %23 = alloca %class.XMMRegister, align 4
  %24 = alloca %class.XMMRegister, align 4
  %25 = alloca %class.XMMRegister, align 4
  %26 = alloca %class.Address, align 8
  %27 = alloca %class.Register, align 4
  %28 = alloca %class.XMMRegister, align 4
  %29 = alloca %class.Address, align 8
  %30 = alloca %class.Register, align 4
  %31 = alloca %class.Register, align 4
  %32 = alloca %class.Register, align 4
  %33 = alloca %class.Address, align 8
  %34 = alloca %class.Register, align 4
  %35 = alloca %class.Register, align 4
  %36 = alloca %class.XMMRegister, align 4
  %37 = alloca %class.Register, align 4
  %38 = alloca %class.XMMRegister, align 4
  %39 = alloca %class.XMMRegister, align 4
  %40 = alloca %class.XMMRegister, align 4
  %41 = alloca %class.Address, align 8
  %42 = alloca %class.Register, align 4
  %43 = alloca %class.Register, align 4
  %44 = getelementptr inbounds %class.Register, ptr %6, i32 0, i32 0
  store i32 %0, ptr %44, align 4
  %45 = getelementptr inbounds %class.Register, ptr %7, i32 0, i32 0
  store i32 %1, ptr %45, align 4
  %46 = getelementptr inbounds %class.Register, ptr %8, i32 0, i32 0
  store i32 %2, ptr %46, align 4
  store i32 %3, ptr %9, align 4
  store ptr %4, ptr %10, align 8
  %47 = load i32, ptr %9, align 4
  %48 = icmp eq i32 %47, 2
  %49 = zext i1 %48 to i8
  store i8 %49, ptr %11, align 1
  %50 = load i32, ptr %9, align 4
  %51 = icmp eq i32 %50, 3
  %52 = zext i1 %51 to i8
  store i8 %52, ptr %12, align 1
  %53 = load i8, ptr %12, align 1
  %54 = trunc i8 %53 to i1
  br i1 %54, label %58, label %55

55:                                               ; preds = %5
  %56 = load i8, ptr %11, align 1
  %57 = trunc i8 %56 to i1
  br label %58

58:                                               ; preds = %55, %5
  %59 = phi i1 [ true, %5 ], [ %57, %55 ]
  %60 = zext i1 %59 to i8
  store i8 %60, ptr %13, align 1
  call void @_ZN5LabelC2Ev(ptr noundef nonnull align 8 dereferenceable(33) %14)
  %61 = load i8, ptr %12, align 1
  %62 = trunc i8 %61 to i1
  br i1 %62, label %63, label %69

63:                                               ; preds = %58
  %64 = load ptr, ptr %10, align 8
  call void @llvm.memcpy.p0.p0.i64(ptr align 4 %15, ptr align 4 @_ZL4xmm0, i64 4, i1 false)
  call void @llvm.memcpy.p0.p0.i64(ptr align 4 %17, ptr align 4 %6, i64 4, i1 false)
  %65 = getelementptr inbounds %class.Register, ptr %17, i32 0, i32 0
  %66 = load i32, ptr %65, align 4
  call void @_ZN7AddressC2E8Registeri(ptr noundef nonnull align 8 dereferenceable(64) %16, i32 %66, i32 noundef 0)
  %67 = getelementptr inbounds %class.XMMRegister, ptr %15, i32 0, i32 0
  %68 = load i32, ptr %67, align 4
  call void @_ZN9Assembler12vpbroadcastwE11XMMRegister7Addressi(ptr noundef nonnull align 8 dereferenceable(40) %64, i32 %68, ptr noundef %16, i32 noundef 1)
  br label %95

69:                                               ; preds = %58
  %70 = load i8, ptr %11, align 1
  %71 = trunc i8 %70 to i1
  br i1 %71, label %72, label %88

72:                                               ; preds = %69
  %73 = load ptr, ptr %10, align 8
  call void @llvm.memcpy.p0.p0.i64(ptr align 4 %18, ptr align 4 %8, i64 4, i1 false)
  call void @llvm.memcpy.p0.p0.i64(ptr align 4 %20, ptr align 4 %6, i64 4, i1 false)
  %74 = getelementptr inbounds %class.Register, ptr %20, i32 0, i32 0
  %75 = load i32, ptr %74, align 4
  call void @_ZN7AddressC2E8Registeri(ptr noundef nonnull align 8 dereferenceable(64) %19, i32 %75, i32 noundef 0)
  %76 = getelementptr inbounds %class.Register, ptr %18, i32 0, i32 0
  %77 = load i32, ptr %76, align 4
  call void @_ZN9Assembler6movzblE8Register7Address(ptr noundef nonnull align 8 dereferenceable(40) %73, i32 %77, ptr noundef %19)
  %78 = load ptr, ptr %10, align 8
  call void @llvm.memcpy.p0.p0.i64(ptr align 4 %21, ptr align 4 @_ZL4xmm0, i64 4, i1 false)
  call void @llvm.memcpy.p0.p0.i64(ptr align 4 %22, ptr align 4 %8, i64 4, i1 false)
  %79 = getelementptr inbounds %class.XMMRegister, ptr %21, i32 0, i32 0
  %80 = load i32, ptr %79, align 4
  %81 = getelementptr inbounds %class.Register, ptr %22, i32 0, i32 0
  %82 = load i32, ptr %81, align 4
  call void @_ZN9Assembler5movdlE11XMMRegister8Register(ptr noundef nonnull align 8 dereferenceable(40) %78, i32 %80, i32 %82)
  %83 = load ptr, ptr %10, align 8
  call void @llvm.memcpy.p0.p0.i64(ptr align 4 %23, ptr align 4 @_ZL4xmm0, i64 4, i1 false)
  call void @llvm.memcpy.p0.p0.i64(ptr align 4 %24, ptr align 4 @_ZL4xmm0, i64 4, i1 false)
  %84 = getelementptr inbounds %class.XMMRegister, ptr %23, i32 0, i32 0
  %85 = load i32, ptr %84, align 4
  %86 = getelementptr inbounds %class.XMMRegister, ptr %24, i32 0, i32 0
  %87 = load i32, ptr %86, align 4
  call void @_ZN9Assembler12vpbroadcastwE11XMMRegisterS0_i(ptr noundef nonnull align 8 dereferenceable(40) %83, i32 %85, i32 %87, i32 noundef 1)
  br label %94

88:                                               ; preds = %69
  %89 = load ptr, ptr %10, align 8
  call void @llvm.memcpy.p0.p0.i64(ptr align 4 %25, ptr align 4 @_ZL4xmm0, i64 4, i1 false)
  call void @llvm.memcpy.p0.p0.i64(ptr align 4 %27, ptr align 4 %6, i64 4, i1 false)
  %90 = getelementptr inbounds %class.Register, ptr %27, i32 0, i32 0
  %91 = load i32, ptr %90, align 4
  call void @_ZN7AddressC2E8Registeri(ptr noundef nonnull align 8 dereferenceable(64) %26, i32 %91, i32 noundef 0)
  %92 = getelementptr inbounds %class.XMMRegister, ptr %25, i32 0, i32 0
  %93 = load i32, ptr %92, align 4
  call void @_ZN9Assembler12vpbroadcastbE11XMMRegister7Addressi(ptr noundef nonnull align 8 dereferenceable(40) %89, i32 %93, ptr noundef %26, i32 noundef 1)
  br label %94

94:                                               ; preds = %88, %72
  br label %95

95:                                               ; preds = %94, %63
  %96 = load i8, ptr %12, align 1
  %97 = trunc i8 %96 to i1
  br i1 %97, label %98, label %106

98:                                               ; preds = %95
  %99 = load ptr, ptr %10, align 8
  call void @llvm.memcpy.p0.p0.i64(ptr align 4 %28, ptr align 4 @_ZL4xmm1, i64 4, i1 false)
  call void @llvm.memcpy.p0.p0.i64(ptr align 4 %30, ptr align 4 %6, i64 4, i1 false)
  call void @llvm.memcpy.p0.p0.i64(ptr align 4 %31, ptr align 4 %7, i64 4, i1 false)
  %100 = getelementptr inbounds %class.Register, ptr %30, i32 0, i32 0
  %101 = load i32, ptr %100, align 4
  %102 = getelementptr inbounds %class.Register, ptr %31, i32 0, i32 0
  %103 = load i32, ptr %102, align 4
  call void @_ZN7AddressC2E8RegisterS0_NS_11ScaleFactorEi(ptr noundef nonnull align 8 dereferenceable(64) %29, i32 %101, i32 %103, i32 noundef 0, i32 noundef -2)
  %104 = getelementptr inbounds %class.XMMRegister, ptr %28, i32 0, i32 0
  %105 = load i32, ptr %104, align 4
  call void @_ZN9Assembler12vpbroadcastwE11XMMRegister7Addressi(ptr noundef nonnull align 8 dereferenceable(40) %99, i32 %105, ptr noundef %29, i32 noundef 1)
  br label %136

106:                                              ; preds = %95
  %107 = load i8, ptr %11, align 1
  %108 = trunc i8 %107 to i1
  br i1 %108, label %109, label %127

109:                                              ; preds = %106
  %110 = load ptr, ptr %10, align 8
  call void @llvm.memcpy.p0.p0.i64(ptr align 4 %32, ptr align 4 %8, i64 4, i1 false)
  call void @llvm.memcpy.p0.p0.i64(ptr align 4 %34, ptr align 4 %6, i64 4, i1 false)
  call void @llvm.memcpy.p0.p0.i64(ptr align 4 %35, ptr align 4 %7, i64 4, i1 false)
  %111 = getelementptr inbounds %class.Register, ptr %34, i32 0, i32 0
  %112 = load i32, ptr %111, align 4
  %113 = getelementptr inbounds %class.Register, ptr %35, i32 0, i32 0
  %114 = load i32, ptr %113, align 4
  call void @_ZN7AddressC2E8RegisterS0_NS_11ScaleFactorEi(ptr noundef nonnull align 8 dereferenceable(64) %33, i32 %112, i32 %114, i32 noundef 0, i32 noundef -1)
  %115 = getelementptr inbounds %class.Register, ptr %32, i32 0, i32 0
  %116 = load i32, ptr %115, align 4
  call void @_ZN9Assembler6movzblE8Register7Address(ptr noundef nonnull align 8 dereferenceable(40) %110, i32 %116, ptr noundef %33)
  %117 = load ptr, ptr %10, align 8
  call void @llvm.memcpy.p0.p0.i64(ptr align 4 %36, ptr align 4 @_ZL4xmm1, i64 4, i1 false)
  call void @llvm.memcpy.p0.p0.i64(ptr align 4 %37, ptr align 4 %8, i64 4, i1 false)
  %118 = getelementptr inbounds %class.XMMRegister, ptr %36, i32 0, i32 0
  %119 = load i32, ptr %118, align 4
  %120 = getelementptr inbounds %class.Register, ptr %37, i32 0, i32 0
  %121 = load i32, ptr %120, align 4
  call void @_ZN9Assembler5movdlE11XMMRegister8Register(ptr noundef nonnull align 8 dereferenceable(40) %117, i32 %119, i32 %121)
  %122 = load ptr, ptr %10, align 8
  call void @llvm.memcpy.p0.p0.i64(ptr align 4 %38, ptr align 4 @_ZL4xmm1, i64 4, i1 false)
  call void @llvm.memcpy.p0.p0.i64(ptr align 4 %39, ptr align 4 @_ZL4xmm1, i64 4, i1 false)
  %123 = getelementptr inbounds %class.XMMRegister, ptr %38, i32 0, i32 0
  %124 = load i32, ptr %123, align 4
  %125 = getelementptr inbounds %class.XMMRegister, ptr %39, i32 0, i32 0
  %126 = load i32, ptr %125, align 4
  call void @_ZN9Assembler12vpbroadcastwE11XMMRegisterS0_i(ptr noundef nonnull align 8 dereferenceable(40) %122, i32 %124, i32 %126, i32 noundef 1)
  br label %135

127:                                              ; preds = %106
  %128 = load ptr, ptr %10, align 8
  call void @llvm.memcpy.p0.p0.i64(ptr align 4 %40, ptr align 4 @_ZL4xmm1, i64 4, i1 false)
  call void @llvm.memcpy.p0.p0.i64(ptr align 4 %42, ptr align 4 %6, i64 4, i1 false)
  call void @llvm.memcpy.p0.p0.i64(ptr align 4 %43, ptr align 4 %7, i64 4, i1 false)
  %129 = getelementptr inbounds %class.Register, ptr %42, i32 0, i32 0
  %130 = load i32, ptr %129, align 4
  %131 = getelementptr inbounds %class.Register, ptr %43, i32 0, i32 0
  %132 = load i32, ptr %131, align 4
  call void @_ZN7AddressC2E8RegisterS0_NS_11ScaleFactorEi(ptr noundef nonnull align 8 dereferenceable(64) %41, i32 %130, i32 %132, i32 noundef 0, i32 noundef -1)
  %133 = getelementptr inbounds %class.XMMRegister, ptr %40, i32 0, i32 0
  %134 = load i32, ptr %133, align 4
  call void @_ZN9Assembler12vpbroadcastbE11XMMRegister7Addressi(ptr noundef nonnull align 8 dereferenceable(40) %128, i32 %134, ptr noundef %41, i32 noundef 1)
  br label %135

135:                                              ; preds = %127, %109
  br label %136

136:                                              ; preds = %135, %98
  %137 = load ptr, ptr %10, align 8
  call void @_ZN17AbstractAssembler4bindER5Label(ptr noundef nonnull align 8 dereferenceable(24) %137, ptr noundef nonnull align 8 dereferenceable(33) %14)
  call void @_ZN5LabelD2Ev(ptr noundef nonnull align 8 dereferenceable(33) %14) #5
  ret void
}