; Function Attrs: mustprogress nounwind uwtable
define internal fastcc void @_ZL31broadcast_first_and_last_needle8RegisterS_S_N16StrIntrinsicNode11ArgEncodingEP14MacroAssembler(i32 %0, i32 %1, i32 %2, i32 noundef %3, ptr noundef %4) unnamed_addr #0 {
  %6 = alloca %class.Label, align 8
  %7 = alloca %class.Address, align 8
  %8 = alloca %class.Address, align 8
  %9 = alloca %class.Address, align 8
  %10 = alloca %class.Address, align 8
  %11 = alloca %class.Address, align 8
  %12 = alloca %class.Address, align 8
  store i32 -1, ptr %6, align 8
  %13 = getelementptr inbounds i8, ptr %6, i64 20
  store i32 0, ptr %13, align 4
  %14 = getelementptr inbounds i8, ptr %6, i64 24
  store ptr null, ptr %14, align 8
  %15 = getelementptr inbounds i8, ptr %6, i64 32
  store i8 0, ptr %15, align 8
  switch i32 %3, label %44 [
    i32 3, label %16
    i32 2, label %30
  ]

16:                                               ; preds = %5
  store i32 %0, ptr %7, align 8
  %17 = getelementptr inbounds i8, ptr %7, i64 4
  store <4 x i32> <i32 -1, i32 -1, i32 -1, i32 0>, ptr %17, align 4
  %18 = getelementptr inbounds i8, ptr %7, i64 20
  store i8 0, ptr %18, align 4
  %19 = getelementptr inbounds i8, ptr %7, i64 24
  store ptr getelementptr inbounds inrange(-16, 72) (i8, ptr @_ZTV10Relocation, i64 16), ptr %19, align 8
  %20 = getelementptr inbounds i8, ptr %7, i64 32
  store ptr null, ptr %20, align 8
  %21 = getelementptr inbounds i8, ptr %7, i64 40
  store i32 0, ptr %21, align 8
  call void @_ZN9Assembler12vpbroadcastwE11XMMRegister7Addressi(ptr noundef nonnull align 8 dereferenceable(40) %4, i32 0, ptr noundef nonnull %7, i32 noundef 1) #6
  store i32 %0, ptr %10, align 8
  %22 = getelementptr inbounds i8, ptr %10, i64 4
  store i32 %1, ptr %22, align 4
  %23 = getelementptr inbounds i8, ptr %10, i64 8
  store i32 -1, ptr %23, align 8
  %24 = getelementptr inbounds i8, ptr %10, i64 12
  store i32 0, ptr %24, align 4
  %25 = getelementptr inbounds i8, ptr %10, i64 16
  store i32 -2, ptr %25, align 8
  %26 = getelementptr inbounds i8, ptr %10, i64 20
  store i8 0, ptr %26, align 4
  %27 = getelementptr inbounds i8, ptr %10, i64 24
  store ptr getelementptr inbounds inrange(-16, 72) (i8, ptr @_ZTV10Relocation, i64 16), ptr %27, align 8
  %28 = getelementptr inbounds i8, ptr %10, i64 32
  store ptr null, ptr %28, align 8
  %29 = getelementptr inbounds i8, ptr %10, i64 40
  store i32 0, ptr %29, align 8
  call void @_ZN9Assembler12vpbroadcastwE11XMMRegister7Addressi(ptr noundef nonnull align 8 dereferenceable(40) %4, i32 1, ptr noundef nonnull %10, i32 noundef 1) #6
  br label %58

30:                                               ; preds = %5
  store i32 %0, ptr %8, align 8
  %31 = getelementptr inbounds i8, ptr %8, i64 4
  store <4 x i32> <i32 -1, i32 -1, i32 -1, i32 0>, ptr %31, align 4
  %32 = getelementptr inbounds i8, ptr %8, i64 20
  store i8 0, ptr %32, align 4
  %33 = getelementptr inbounds i8, ptr %8, i64 24
  store ptr getelementptr inbounds inrange(-16, 72) (i8, ptr @_ZTV10Relocation, i64 16), ptr %33, align 8
  %34 = getelementptr inbounds i8, ptr %8, i64 32
  store ptr null, ptr %34, align 8
  %35 = getelementptr inbounds i8, ptr %8, i64 40
  store i32 0, ptr %35, align 8
  call void @_ZN9Assembler6movzblE8Register7Address(ptr noundef nonnull align 8 dereferenceable(40) %4, i32 %2, ptr noundef nonnull %8) #6
  call void @_ZN9Assembler5movdlE11XMMRegister8Register(ptr noundef nonnull align 8 dereferenceable(40) %4, i32 0, i32 %2) #6
  call void @_ZN9Assembler12vpbroadcastwE11XMMRegisterS0_i(ptr noundef nonnull align 8 dereferenceable(40) %4, i32 0, i32 0, i32 noundef 1) #6
  store i32 %0, ptr %11, align 8
  %36 = getelementptr inbounds i8, ptr %11, i64 4
  store i32 %1, ptr %36, align 4
  %37 = getelementptr inbounds i8, ptr %11, i64 8
  store i32 -1, ptr %37, align 8
  %38 = getelementptr inbounds i8, ptr %11, i64 12
  store i32 0, ptr %38, align 4
  %39 = getelementptr inbounds i8, ptr %11, i64 16
  store i32 -1, ptr %39, align 8
  %40 = getelementptr inbounds i8, ptr %11, i64 20
  store i8 0, ptr %40, align 4
  %41 = getelementptr inbounds i8, ptr %11, i64 24
  store ptr getelementptr inbounds inrange(-16, 72) (i8, ptr @_ZTV10Relocation, i64 16), ptr %41, align 8
  %42 = getelementptr inbounds i8, ptr %11, i64 32
  store ptr null, ptr %42, align 8
  %43 = getelementptr inbounds i8, ptr %11, i64 40
  store i32 0, ptr %43, align 8
  call void @_ZN9Assembler6movzblE8Register7Address(ptr noundef nonnull align 8 dereferenceable(40) %4, i32 %2, ptr noundef nonnull %11) #6
  call void @_ZN9Assembler5movdlE11XMMRegister8Register(ptr noundef nonnull align 8 dereferenceable(40) %4, i32 1, i32 %2) #6
  call void @_ZN9Assembler12vpbroadcastwE11XMMRegisterS0_i(ptr noundef nonnull align 8 dereferenceable(40) %4, i32 1, i32 1, i32 noundef 1) #6
  br label %58

44:                                               ; preds = %5
  store i32 %0, ptr %9, align 8
  %45 = getelementptr inbounds i8, ptr %9, i64 4
  store <4 x i32> <i32 -1, i32 -1, i32 -1, i32 0>, ptr %45, align 4
  %46 = getelementptr inbounds i8, ptr %9, i64 20
  store i8 0, ptr %46, align 4
  %47 = getelementptr inbounds i8, ptr %9, i64 24
  store ptr getelementptr inbounds inrange(-16, 72) (i8, ptr @_ZTV10Relocation, i64 16), ptr %47, align 8
  %48 = getelementptr inbounds i8, ptr %9, i64 32
  store ptr null, ptr %48, align 8
  %49 = getelementptr inbounds i8, ptr %9, i64 40
  store i32 0, ptr %49, align 8
  call void @_ZN9Assembler12vpbroadcastbE11XMMRegister7Addressi(ptr noundef nonnull align 8 dereferenceable(40) %4, i32 0, ptr noundef nonnull %9, i32 noundef 1) #6
  store i32 %0, ptr %12, align 8
  %50 = getelementptr inbounds i8, ptr %12, i64 4
  store i32 %1, ptr %50, align 4
  %51 = getelementptr inbounds i8, ptr %12, i64 8
  store i32 -1, ptr %51, align 8
  %52 = getelementptr inbounds i8, ptr %12, i64 12
  store i32 0, ptr %52, align 4
  %53 = getelementptr inbounds i8, ptr %12, i64 16
  store i32 -1, ptr %53, align 8
  %54 = getelementptr inbounds i8, ptr %12, i64 20
  store i8 0, ptr %54, align 4
  %55 = getelementptr inbounds i8, ptr %12, i64 24
  store ptr getelementptr inbounds inrange(-16, 72) (i8, ptr @_ZTV10Relocation, i64 16), ptr %55, align 8
  %56 = getelementptr inbounds i8, ptr %12, i64 32
  store ptr null, ptr %56, align 8
  %57 = getelementptr inbounds i8, ptr %12, i64 40
  store i32 0, ptr %57, align 8
  call void @_ZN9Assembler12vpbroadcastbE11XMMRegister7Addressi(ptr noundef nonnull align 8 dereferenceable(40) %4, i32 1, ptr noundef nonnull %12, i32 noundef 1) #6
  br label %58

58:                                               ; preds = %30, %44, %16
  call void @_ZN17AbstractAssembler4bindER5Label(ptr noundef nonnull align 8 dereferenceable(24) %4, ptr noundef nonnull align 8 dereferenceable(33) %6) #6
  ret void
}